; ModuleID = '5/1063.c'
source_filename = "5/1063.c"
target datalayout = "e-m:e-p270:32:32-p271:32:32-p272:64:64-i64:64-f80:128-n8:16:32:64-S128"
target triple = "x86_64-pc-linux-gnu"

@.str = private unnamed_addr constant [4 x i8] c"%lf\00", align 1
@.str.1 = private unnamed_addr constant [3 x i8] c"%s\00", align 1
@.str.2 = private unnamed_addr constant [6 x i8] c"error\00", align 1
@.str.3 = private unnamed_addr constant [4 x i8] c"yes\00", align 1
@.str.4 = private unnamed_addr constant [3 x i8] c"no\00", align 1

; Function Attrs: noinline nounwind uwtable
define dso_local i32 @main() #0 {
  %1 = alloca i32, align 4
  %2 = alloca [501 x i8], align 16
  %3 = alloca [501 x i8], align 16
  %4 = alloca double, align 8
  %5 = alloca double, align 8
  %6 = alloca double, align 8
  %7 = alloca double, align 8
  %8 = alloca double, align 8
  %9 = alloca double, align 8
  %10 = alloca i32, align 4
  %11 = alloca i32, align 4
  %12 = alloca i32, align 4
  store i32 0, i32* %1, align 4
  store double 0.000000e+00, double* %6, align 8
  store double 1.000000e+00, double* %9, align 8
  %13 = call i32 (i8*, ...) @__isoc99_scanf(i8* getelementptr inbounds ([4 x i8], [4 x i8]* @.str, i64 0, i64 0), double* %4)
  %14 = getelementptr inbounds [501 x i8], [501 x i8]* %2, i64 0, i64 0
  %15 = call i32 (i8*, ...) @__isoc99_scanf(i8* getelementptr inbounds ([3 x i8], [3 x i8]* @.str.1, i64 0, i64 0), i8* %14)
  %16 = getelementptr inbounds [501 x i8], [501 x i8]* %3, i64 0, i64 0
  %17 = call i32 (i8*, ...) @__isoc99_scanf(i8* getelementptr inbounds ([3 x i8], [3 x i8]* @.str.1, i64 0, i64 0), i8* %16)
  %18 = getelementptr inbounds [501 x i8], [501 x i8]* %2, i64 0, i64 0
  %19 = call i64 @strlen(i8* %18) #3
  %20 = uitofp i64 %19 to double
  store double %20, double* %7, align 8
  %21 = getelementptr inbounds [501 x i8], [501 x i8]* %3, i64 0, i64 0
  %22 = call i64 @strlen(i8* %21) #3
  %23 = uitofp i64 %22 to double
  store double %23, double* %8, align 8
  store i32 0, i32* %10, align 4
  br label %24

24:                                               ; preds = %59, %0
  %25 = load i32, i32* %10, align 4
  %26 = sitofp i32 %25 to double
  %27 = load double, double* %7, align 8
  %28 = fcmp olt double %26, %27
  br i1 %28, label %29, label %62

29:                                               ; preds = %24
  %30 = load i32, i32* %10, align 4
  %31 = sext i32 %30 to i64
  %32 = getelementptr inbounds [501 x i8], [501 x i8]* %2, i64 0, i64 %31
  %33 = load i8, i8* %32, align 1
  %34 = sext i8 %33 to i32
  %35 = icmp ne i32 %34, 65
  br i1 %35, label %36, label %58

36:                                               ; preds = %29
  %37 = load i32, i32* %10, align 4
  %38 = sext i32 %37 to i64
  %39 = getelementptr inbounds [501 x i8], [501 x i8]* %2, i64 0, i64 %38
  %40 = load i8, i8* %39, align 1
  %41 = sext i8 %40 to i32
  %42 = icmp ne i32 %41, 67
  br i1 %42, label %43, label %58

43:                                               ; preds = %36
  %44 = load i32, i32* %10, align 4
  %45 = sext i32 %44 to i64
  %46 = getelementptr inbounds [501 x i8], [501 x i8]* %2, i64 0, i64 %45
  %47 = load i8, i8* %46, align 1
  %48 = sext i8 %47 to i32
  %49 = icmp ne i32 %48, 71
  br i1 %49, label %50, label %58

50:                                               ; preds = %43
  %51 = load i32, i32* %10, align 4
  %52 = sext i32 %51 to i64
  %53 = getelementptr inbounds [501 x i8], [501 x i8]* %2, i64 0, i64 %52
  %54 = load i8, i8* %53, align 1
  %55 = sext i8 %54 to i32
  %56 = icmp ne i32 %55, 84
  br i1 %56, label %57, label %58

57:                                               ; preds = %50
  store double 0.000000e+00, double* %9, align 8
  br label %62

58:                                               ; preds = %50, %43, %36, %29
  br label %59

59:                                               ; preds = %58
  %60 = load i32, i32* %10, align 4
  %61 = add nsw i32 %60, 1
  store i32 %61, i32* %10, align 4
  br label %24

62:                                               ; preds = %57, %24
  store i32 0, i32* %11, align 4
  br label %63

63:                                               ; preds = %98, %62
  %64 = load i32, i32* %11, align 4
  %65 = sitofp i32 %64 to double
  %66 = load double, double* %8, align 8
  %67 = fcmp olt double %65, %66
  br i1 %67, label %68, label %101

68:                                               ; preds = %63
  %69 = load i32, i32* %11, align 4
  %70 = sext i32 %69 to i64
  %71 = getelementptr inbounds [501 x i8], [501 x i8]* %3, i64 0, i64 %70
  %72 = load i8, i8* %71, align 1
  %73 = sext i8 %72 to i32
  %74 = icmp ne i32 %73, 65
  br i1 %74, label %75, label %97

75:                                               ; preds = %68
  %76 = load i32, i32* %11, align 4
  %77 = sext i32 %76 to i64
  %78 = getelementptr inbounds [501 x i8], [501 x i8]* %3, i64 0, i64 %77
  %79 = load i8, i8* %78, align 1
  %80 = sext i8 %79 to i32
  %81 = icmp ne i32 %80, 67
  br i1 %81, label %82, label %97

82:                                               ; preds = %75
  %83 = load i32, i32* %11, align 4
  %84 = sext i32 %83 to i64
  %85 = getelementptr inbounds [501 x i8], [501 x i8]* %3, i64 0, i64 %84
  %86 = load i8, i8* %85, align 1
  %87 = sext i8 %86 to i32
  %88 = icmp ne i32 %87, 71
  br i1 %88, label %89, label %97

89:                                               ; preds = %82
  %90 = load i32, i32* %11, align 4
  %91 = sext i32 %90 to i64
  %92 = getelementptr inbounds [501 x i8], [501 x i8]* %3, i64 0, i64 %91
  %93 = load i8, i8* %92, align 1
  %94 = sext i8 %93 to i32
  %95 = icmp ne i32 %94, 84
  br i1 %95, label %96, label %97

96:                                               ; preds = %89
  store double 0.000000e+00, double* %9, align 8
  br label %101

97:                                               ; preds = %89, %82, %75, %68
  br label %98

98:                                               ; preds = %97
  %99 = load i32, i32* %11, align 4
  %100 = add nsw i32 %99, 1
  store i32 %100, i32* %11, align 4
  br label %63

101:                                              ; preds = %96, %63
  %102 = load double, double* %7, align 8
  %103 = load double, double* %8, align 8
  %104 = fcmp une double %102, %103
  br i1 %104, label %105, label %106

105:                                              ; preds = %101
  store double 0.000000e+00, double* %9, align 8
  br label %106

106:                                              ; preds = %105, %101
  %107 = load double, double* %9, align 8
  %108 = fcmp oeq double %107, 0.000000e+00
  br i1 %108, label %109, label %111

109:                                              ; preds = %106
  %110 = call i32 (i8*, ...) @printf(i8* getelementptr inbounds ([6 x i8], [6 x i8]* @.str.2, i64 0, i64 0))
  br label %148

111:                                              ; preds = %106
  store i32 0, i32* %12, align 4
  br label %112

112:                                              ; preds = %133, %111
  %113 = load i32, i32* %12, align 4
  %114 = sitofp i32 %113 to double
  %115 = load double, double* %7, align 8
  %116 = fcmp olt double %114, %115
  br i1 %116, label %117, label %136

117:                                              ; preds = %112
  %118 = load i32, i32* %12, align 4
  %119 = sext i32 %118 to i64
  %120 = getelementptr inbounds [501 x i8], [501 x i8]* %2, i64 0, i64 %119
  %121 = load i8, i8* %120, align 1
  %122 = sext i8 %121 to i32
  %123 = load i32, i32* %12, align 4
  %124 = sext i32 %123 to i64
  %125 = getelementptr inbounds [501 x i8], [501 x i8]* %3, i64 0, i64 %124
  %126 = load i8, i8* %125, align 1
  %127 = sext i8 %126 to i32
  %128 = icmp eq i32 %122, %127
  br i1 %128, label %129, label %132

129:                                              ; preds = %117
  %130 = load double, double* %6, align 8
  %131 = fadd double %130, 1.000000e+00
  store double %131, double* %6, align 8
  br label %132

132:                                              ; preds = %129, %117
  br label %133

133:                                              ; preds = %132
  %134 = load i32, i32* %12, align 4
  %135 = add nsw i32 %134, 1
  store i32 %135, i32* %12, align 4
  br label %112

136:                                              ; preds = %112
  %137 = load double, double* %6, align 8
  %138 = load double, double* %7, align 8
  %139 = fdiv double %137, %138
  store double %139, double* %5, align 8
  %140 = load double, double* %5, align 8
  %141 = load double, double* %4, align 8
  %142 = fcmp ogt double %140, %141
  br i1 %142, label %143, label %145

143:                                              ; preds = %136
  %144 = call i32 (i8*, ...) @printf(i8* getelementptr inbounds ([4 x i8], [4 x i8]* @.str.3, i64 0, i64 0))
  br label %147

145:                                              ; preds = %136
  %146 = call i32 (i8*, ...) @printf(i8* getelementptr inbounds ([3 x i8], [3 x i8]* @.str.4, i64 0, i64 0))
  br label %147

147:                                              ; preds = %145, %143
  br label %148

148:                                              ; preds = %147, %109
  ret i32 0
}

declare dso_local i32 @__isoc99_scanf(i8*, ...) #1

; Function Attrs: nounwind readonly
declare dso_local i64 @strlen(i8*) #2

declare dso_local i32 @printf(i8*, ...) #1


!llvm.module.flags = !{!0}
!llvm.ident = !{!1}

!0 = !{i32 1, !"wchar_size", i32 4}
!1 = !{!"clang version 10.0.0-4ubuntu1 "}
